target datalayout = "e-m:e-p270:32:32-p271:32:32-p272:64:64-i64:64-i128:128-f80:128-n8:16:32:64-S128"
target triple = "x86_64-pc-linux-gnu"

%struct.StringPiece = type { ptr, i64 }
%"class.std::__cxx11::basic_string" = type { %"struct.std::__cxx11::basic_string<char>::_Alloc_hider", i64, %union.anon }
%"struct.std::__cxx11::basic_string<char>::_Alloc_hider" = type { ptr }
%union.anon = type { i64, [8 x i8] }
%struct.BuildLog = type <{ %"class.emhash8::HashMap", ptr, %"class.std::__cxx11::basic_string", i8, [7 x i8] }>
%"class.emhash8::HashMap" = type <{ ptr, ptr, [4 x i8], i32, i32, i32, i32, i32, i32, [4 x i8] }>
%"class.emhash8::HashMap<StringPiece, std::unique_ptr<BuildLog::LogEntry>>::iterator" = type { ptr }
%"struct.std::pair" = type { %struct.StringPiece, %"class.std::unique_ptr" }
%"class.std::unique_ptr" = type { %"struct.std::__uniq_ptr_data" }
%"struct.std::__uniq_ptr_data" = type { %"class.std::__uniq_ptr_impl" }
%"class.std::__uniq_ptr_impl" = type { %"class.std::tuple" }
%"class.std::tuple" = type { %"struct.std::_Tuple_impl" }
%"struct.std::_Tuple_impl" = type { %"struct.std::_Head_base.9" }
%"struct.std::_Head_base.9" = type { ptr }

; Function Attrs: mustprogress nounwind uwtable
define linkonce_odr dso_local noundef nonnull align 8 dereferenceable(8) ptr @_ZNSt10_Head_baseILm0EPN8BuildLog8LogEntryELb0EE7_M_headERKS3_(ptr noundef nonnull align 8 dereferenceable(8) %0) #0 comdat align 2 {
  %2 = alloca ptr, align 8
  store ptr %0, ptr %2, align 8, !tbaa !166
  %3 = load ptr, ptr %2, align 8, !tbaa !166
  %4 = getelementptr inbounds nuw %"struct.std::_Head_base.9", ptr %3, i32 0, i32 0
  ret ptr %4
}

; Function Attrs: mustprogress nounwind uwtable
define linkonce_odr dso_local noundef nonnull align 8 dereferenceable(8) ptr @_ZNSt11_Tuple_implILm0EJPN8BuildLog8LogEntryESt14default_deleteIS1_EEE7_M_headERKS5_(ptr noundef nonnull align 8 dereferenceable(8) %0) #0 comdat align 2 {
  %2 = alloca ptr, align 8
  store ptr %0, ptr %2, align 8, !tbaa !161
  %3 = load ptr, ptr %2, align 8, !tbaa !161
  %4 = call noundef nonnull align 8 dereferenceable(8) ptr @_ZNSt10_Head_baseILm0EPN8BuildLog8LogEntryELb0EE7_M_headERKS3_(ptr noundef nonnull align 8 dereferenceable(8) %3) #9
  ret ptr %4
}

; Function Attrs: mustprogress nounwind uwtable
define linkonce_odr dso_local noundef nonnull align 8 dereferenceable(8) ptr @_ZSt12__get_helperILm0EPN8BuildLog8LogEntryEJSt14default_deleteIS1_EEERKT0_RKSt11_Tuple_implIXT_EJS5_DpT1_EE(ptr noundef nonnull align 8 dereferenceable(8) %0) #0 comdat {
  %2 = alloca ptr, align 8
  store ptr %0, ptr %2, align 8, !tbaa !161
  %3 = load ptr, ptr %2, align 8, !tbaa !161
  %4 = call noundef nonnull align 8 dereferenceable(8) ptr @_ZNSt11_Tuple_implILm0EJPN8BuildLog8LogEntryESt14default_deleteIS1_EEE7_M_headERKS5_(ptr noundef nonnull align 8 dereferenceable(8) %3) #9
  ret ptr %4
}

; Function Attrs: mustprogress nounwind uwtable
define linkonce_odr dso_local noundef nonnull align 8 dereferenceable(8) ptr @_ZSt3getILm0EJPN8BuildLog8LogEntryESt14default_deleteIS1_EEERKNSt13tuple_elementIXT_ESt5tupleIJDpT0_EEE4typeERKS9_(ptr noundef nonnull align 8 dereferenceable(8) %0) #0 comdat {
  %2 = alloca ptr, align 8
  store ptr %0, ptr %2, align 8, !tbaa !159
  %3 = load ptr, ptr %2, align 8, !tbaa !159
  %4 = call noundef nonnull align 8 dereferenceable(8) ptr @_ZSt12__get_helperILm0EPN8BuildLog8LogEntryEJSt14default_deleteIS1_EEERKT0_RKSt11_Tuple_implIXT_EJS5_DpT1_EE(ptr noundef nonnull align 8 dereferenceable(8) %3) #9
  ret ptr %4
}

; Function Attrs: mustprogress nounwind uwtable
define linkonce_odr dso_local noundef ptr @_ZNKSt15__uniq_ptr_implIN8BuildLog8LogEntryESt14default_deleteIS1_EE6_M_ptrEv(ptr noundef nonnull align 8 dereferenceable(8) %0) #0 comdat align 2 {
  %2 = alloca ptr, align 8
  store ptr %0, ptr %2, align 8, !tbaa !157
  %3 = load ptr, ptr %2, align 8
  %4 = getelementptr inbounds nuw %"class.std::__uniq_ptr_impl", ptr %3, i32 0, i32 0
  %5 = call noundef nonnull align 8 dereferenceable(8) ptr @_ZSt3getILm0EJPN8BuildLog8LogEntryESt14default_deleteIS1_EEERKNSt13tuple_elementIXT_ESt5tupleIJDpT0_EEE4typeERKS9_(ptr noundef nonnull align 8 dereferenceable(8) %4) #9
  %6 = load ptr, ptr %5, align 8, !tbaa !14
  ret ptr %6
}

; Function Attrs: noinline noreturn nounwind uwtable
define linkonce_odr hidden void @__clang_call_terminate(ptr noundef %0) #3 comdat {
  %2 = call ptr @__cxa_begin_catch(ptr %0) #9
  call void @_ZSt9terminatev() #21
  unreachable
}

; Function Attrs: mustprogress nounwind uwtable
define linkonce_odr dso_local void @_ZN7emhash87HashMapI11StringPieceSt10unique_ptrIN8BuildLog8LogEntryESt14default_deleteIS4_EESt4hashIS1_ESt8equal_toIS1_ESaISt4pairIS1_S7_EENS_13DefaultPolicyEE8iteratorC2EPKSG_j(ptr noundef nonnull align 8 dereferenceable(8) %0, ptr noundef %1, i32 noundef %2) unnamed_addr #0 comdat align 2 {
  %4 = alloca ptr, align 8
  %5 = alloca ptr, align 8
  %6 = alloca i32, align 4
  store ptr %0, ptr %4, align 8, !tbaa !80
  store ptr %1, ptr %5, align 8, !tbaa !40
  store i32 %2, ptr %6, align 4, !tbaa !27
  %7 = load ptr, ptr %4, align 8
  %8 = load ptr, ptr %5, align 8, !tbaa !40
  %9 = getelementptr inbounds nuw %"class.emhash8::HashMap", ptr %8, i32 0, i32 1
  %10 = load ptr, ptr %9, align 8, !tbaa !44
  %11 = load i32, ptr %6, align 4, !tbaa !27
  %12 = sext i32 %11 to i64
  %13 = getelementptr inbounds %"struct.std::pair", ptr %10, i64 %12
  %14 = getelementptr inbounds nuw %"class.emhash8::HashMap<StringPiece, std::unique_ptr<BuildLog::LogEntry>>::iterator", ptr %7, i32 0, i32 0
  store ptr %13, ptr %14, align 8, !tbaa !82
  ret void
}

; Function Attrs: mustprogress nounwind uwtable
define linkonce_odr dso_local noundef ptr @_ZNKSt10unique_ptrIN8BuildLog8LogEntryESt14default_deleteIS1_EE3getEv(ptr noundef nonnull align 8 dereferenceable(8) %0) #0 comdat align 2 {
  %2 = alloca ptr, align 8
  store ptr %0, ptr %2, align 8, !tbaa !85
  %3 = load ptr, ptr %2, align 8
  %4 = getelementptr inbounds nuw %"class.std::unique_ptr", ptr %3, i32 0, i32 0
  %5 = call noundef ptr @_ZNKSt15__uniq_ptr_implIN8BuildLog8LogEntryESt14default_deleteIS1_EE6_M_ptrEv(ptr noundef nonnull align 8 dereferenceable(8) %4) #9
  ret ptr %5
}

; Function Attrs: mustprogress nounwind uwtable
define linkonce_odr dso_local noundef ptr @_ZNK7emhash87HashMapI11StringPieceSt10unique_ptrIN8BuildLog8LogEntryESt14default_deleteIS4_EESt4hashIS1_ESt8equal_toIS1_ESaISt4pairIS1_S7_EENS_13DefaultPolicyEE8iteratorptEv(ptr noundef nonnull align 8 dereferenceable(8) %0) #0 comdat align 2 {
  %2 = alloca ptr, align 8
  store ptr %0, ptr %2, align 8, !tbaa !80
  %3 = load ptr, ptr %2, align 8
  %4 = getelementptr inbounds nuw %"class.emhash8::HashMap<StringPiece, std::unique_ptr<BuildLog::LogEntry>>::iterator", ptr %3, i32 0, i32 0
  %5 = load ptr, ptr %4, align 8, !tbaa !82
  ret ptr %5
}

; Function Attrs: mustprogress nounwind uwtable
define linkonce_odr dso_local noundef zeroext i1 @_ZNK7emhash87HashMapI11StringPieceSt10unique_ptrIN8BuildLog8LogEntryESt14default_deleteIS4_EESt4hashIS1_ESt8equal_toIS1_ESaISt4pairIS1_S7_EENS_13DefaultPolicyEE8iteratorneERKSH_(ptr noundef nonnull align 8 dereferenceable(8) %0, ptr noundef nonnull align 8 dereferenceable(8) %1) #0 comdat align 2 {
  %3 = alloca ptr, align 8
  %4 = alloca ptr, align 8
  store ptr %0, ptr %3, align 8, !tbaa !80
  store ptr %1, ptr %4, align 8, !tbaa !80
  %5 = load ptr, ptr %3, align 8
  %6 = getelementptr inbounds nuw %"class.emhash8::HashMap<StringPiece, std::unique_ptr<BuildLog::LogEntry>>::iterator", ptr %5, i32 0, i32 0
  %7 = load ptr, ptr %6, align 8, !tbaa !82
  %8 = load ptr, ptr %4, align 8, !tbaa !80
  %9 = getelementptr inbounds nuw %"class.emhash8::HashMap<StringPiece, std::unique_ptr<BuildLog::LogEntry>>::iterator", ptr %8, i32 0, i32 0
  %10 = load ptr, ptr %9, align 8, !tbaa !82
  %11 = icmp ne ptr %7, %10
  ret i1 %11
}

; Function Attrs: mustprogress uwtable
define linkonce_odr dso_local ptr @_ZN7emhash87HashMapI11StringPieceSt10unique_ptrIN8BuildLog8LogEntryESt14default_deleteIS4_EESt4hashIS1_ESt8equal_toIS1_ESaISt4pairIS1_S7_EENS_13DefaultPolicyEE3endEv(ptr noundef nonnull align 8 dereferenceable(44) %0) #2 comdat align 2 {
  %2 = alloca %"class.emhash8::HashMap<StringPiece, std::unique_ptr<BuildLog::LogEntry>>::iterator", align 8
  %3 = alloca ptr, align 8
  store ptr %0, ptr %3, align 8, !tbaa !40
  %4 = load ptr, ptr %3, align 8
  %5 = getelementptr inbounds nuw %"class.emhash8::HashMap", ptr %4, i32 0, i32 6
  %6 = load i32, ptr %5, align 8, !tbaa !84
  call void @_ZN7emhash87HashMapI11StringPieceSt10unique_ptrIN8BuildLog8LogEntryESt14default_deleteIS4_EESt4hashIS1_ESt8equal_toIS1_ESaISt4pairIS1_S7_EENS_13DefaultPolicyEE8iteratorC2EPKSG_j(ptr noundef nonnull align 8 dereferenceable(8) %2, ptr noundef %4, i32 noundef %6)
  %7 = getelementptr inbounds nuw %"class.emhash8::HashMap<StringPiece, std::unique_ptr<BuildLog::LogEntry>>::iterator", ptr %2, i32 0, i32 0
  %8 = load ptr, ptr %7, align 8
  ret ptr %8
}

; Function Attrs: mustprogress nounwind uwtable
define linkonce_odr dso_local ptr @_ZN7emhash87HashMapI11StringPieceSt10unique_ptrIN8BuildLog8LogEntryESt14default_deleteIS4_EESt4hashIS1_ESt8equal_toIS1_ESaISt4pairIS1_S7_EENS_13DefaultPolicyEE4findINSt7__cxx1112basic_stringIcSt11char_traitsIcESaIcEEEEENSG_8iteratorERKT_(ptr noundef nonnull align 8 dereferenceable(44) %0, ptr noundef nonnull align 8 dereferenceable(32) %1) #0 comdat align 2 personality ptr @__gxx_personality_v0 {
  %3 = alloca %"class.emhash8::HashMap<StringPiece, std::unique_ptr<BuildLog::LogEntry>>::iterator", align 8
  %4 = alloca ptr, align 8
  %5 = alloca ptr, align 8
  store ptr %0, ptr %4, align 8, !tbaa !40
  store ptr %1, ptr %5, align 8, !tbaa !16
  %6 = load ptr, ptr %4, align 8
  %7 = load ptr, ptr %5, align 8, !tbaa !16
  %8 = call noundef i32 @_ZNK7emhash87HashMapI11StringPieceSt10unique_ptrIN8BuildLog8LogEntryESt14default_deleteIS4_EESt4hashIS1_ESt8equal_toIS1_ESaISt4pairIS1_S7_EENS_13DefaultPolicyEE16find_filled_slotINSt7__cxx1112basic_stringIcSt11char_traitsIcESaIcEEEEEjRKT_(ptr noundef nonnull align 8 dereferenceable(44) %6, ptr noundef nonnull align 8 dereferenceable(32) %7) #9
  invoke void @_ZN7emhash87HashMapI11StringPieceSt10unique_ptrIN8BuildLog8LogEntryESt14default_deleteIS4_EESt4hashIS1_ESt8equal_toIS1_ESaISt4pairIS1_S7_EENS_13DefaultPolicyEE8iteratorC2EPKSG_j(ptr noundef nonnull align 8 dereferenceable(8) %3, ptr noundef %6, i32 noundef %8)
          to label %9 unwind label %12

9:                                                ; preds = %2
  %10 = getelementptr inbounds nuw %"class.emhash8::HashMap<StringPiece, std::unique_ptr<BuildLog::LogEntry>>::iterator", ptr %3, i32 0, i32 0
  %11 = load ptr, ptr %10, align 8
  ret ptr %11

12:                                               ; preds = %2
  %13 = landingpad { ptr, i32 }
          catch ptr null
  %14 = extractvalue { ptr, i32 } %13, 0
  call void @__clang_call_terminate(ptr %14) #21
  unreachable
}

; Function Attrs: mustprogress uwtable
define dso_local noundef ptr @_ZN8BuildLog14LookupByOutputERKNSt7__cxx1112basic_stringIcSt11char_traitsIcESaIcEEE(ptr noundef nonnull align 8 dereferenceable(89) %0, ptr noundef nonnull align 8 dereferenceable(32) %1) #2 align 2 {
  %3 = alloca ptr, align 8
  %4 = alloca ptr, align 8
  %5 = alloca ptr, align 8
  %6 = alloca %"class.emhash8::HashMap<StringPiece, std::unique_ptr<BuildLog::LogEntry>>::iterator", align 8
  %7 = alloca %"class.emhash8::HashMap<StringPiece, std::unique_ptr<BuildLog::LogEntry>>::iterator", align 8
  %8 = alloca i32, align 4
  store ptr %0, ptr %4, align 8, !tbaa !28
  store ptr %1, ptr %5, align 8, !tbaa !16
  %9 = load ptr, ptr %4, align 8
  call void @llvm.lifetime.start.p0(i64 8, ptr %6) #9
  %10 = getelementptr inbounds nuw %struct.BuildLog, ptr %9, i32 0, i32 0
  %11 = load ptr, ptr %5, align 8, !tbaa !16
  %12 = call ptr @_ZN7emhash87HashMapI11StringPieceSt10unique_ptrIN8BuildLog8LogEntryESt14default_deleteIS4_EESt4hashIS1_ESt8equal_toIS1_ESaISt4pairIS1_S7_EENS_13DefaultPolicyEE4findINSt7__cxx1112basic_stringIcSt11char_traitsIcESaIcEEEEENSG_8iteratorERKT_(ptr noundef nonnull align 8 dereferenceable(44) %10, ptr noundef nonnull align 8 dereferenceable(32) %11) #9
  %13 = getelementptr inbounds nuw %"class.emhash8::HashMap<StringPiece, std::unique_ptr<BuildLog::LogEntry>>::iterator", ptr %6, i32 0, i32 0
  store ptr %12, ptr %13, align 8
  call void @llvm.lifetime.start.p0(i64 8, ptr %7) #9
  %14 = getelementptr inbounds nuw %struct.BuildLog, ptr %9, i32 0, i32 0
  %15 = call ptr @_ZN7emhash87HashMapI11StringPieceSt10unique_ptrIN8BuildLog8LogEntryESt14default_deleteIS4_EESt4hashIS1_ESt8equal_toIS1_ESaISt4pairIS1_S7_EENS_13DefaultPolicyEE3endEv(ptr noundef nonnull align 8 dereferenceable(44) %14)
  %16 = getelementptr inbounds nuw %"class.emhash8::HashMap<StringPiece, std::unique_ptr<BuildLog::LogEntry>>::iterator", ptr %7, i32 0, i32 0
  store ptr %15, ptr %16, align 8
  %17 = call noundef zeroext i1 @_ZNK7emhash87HashMapI11StringPieceSt10unique_ptrIN8BuildLog8LogEntryESt14default_deleteIS4_EESt4hashIS1_ESt8equal_toIS1_ESaISt4pairIS1_S7_EENS_13DefaultPolicyEE8iteratorneERKSH_(ptr noundef nonnull align 8 dereferenceable(8) %6, ptr noundef nonnull align 8 dereferenceable(8) %7)
  call void @llvm.lifetime.end.p0(i64 8, ptr %7) #9
  br i1 %17, label %18, label %22

18:                                               ; preds = %2
  %19 = call noundef ptr @_ZNK7emhash87HashMapI11StringPieceSt10unique_ptrIN8BuildLog8LogEntryESt14default_deleteIS4_EESt4hashIS1_ESt8equal_toIS1_ESaISt4pairIS1_S7_EENS_13DefaultPolicyEE8iteratorptEv(ptr noundef nonnull align 8 dereferenceable(8) %6)
  %20 = getelementptr inbounds nuw %"struct.std::pair", ptr %19, i32 0, i32 1
  %21 = call noundef ptr @_ZNKSt10unique_ptrIN8BuildLog8LogEntryESt14default_deleteIS1_EE3getEv(ptr noundef nonnull align 8 dereferenceable(8) %20) #9
  store ptr %21, ptr %3, align 8
  store i32 1, ptr %8, align 4
  br label %23

22:                                               ; preds = %2
  store ptr null, ptr %3, align 8
  store i32 1, ptr %8, align 4
  br label %23

23:                                               ; preds = %22, %18
  call void @llvm.lifetime.end.p0(i64 8, ptr %6) #9
  %24 = load ptr, ptr %3, align 8
  ret ptr %24
}