; Function Attrs: mustprogress nounwind uwtable
define dso_local noundef ptr @_ZN8BuildLog14LookupByOutputERKNSt7__cxx1112basic_stringIcSt11char_traitsIcESaIcEEE(ptr noundef nonnull align 8 dereferenceable(89) %0, ptr noundef nonnull align 8 dereferenceable(32) %1) local_unnamed_addr #0 align 2 personality ptr @__gxx_personality_v0 {
  %3 = tail call noundef i32 @_ZNK7emhash87HashMapI11StringPieceSt10unique_ptrIN8BuildLog8LogEntryESt14default_deleteIS4_EESt4hashIS1_ESt8equal_toIS1_ESaISt4pairIS1_S7_EENS_13DefaultPolicyEE16find_filled_slotINSt7__cxx1112basic_stringIcSt11char_traitsIcESaIcEEEEEjRKT_(ptr noundef nonnull align 8 dereferenceable(44) %0, ptr noundef nonnull align 8 dereferenceable(32) %1) #27
  %4 = getelementptr inbounds nuw i8, ptr %0, i64 32
  %5 = load i32, ptr %4, align 8, !tbaa !29
  %.not = icmp eq i32 %3, %5
  br i1 %.not, label %12, label %6

6:                                                ; preds = %2
  %7 = sext i32 %3 to i64
  %8 = getelementptr inbounds nuw i8, ptr %0, i64 8
  %9 = load ptr, ptr %8, align 8, !tbaa !36
  %10 = getelementptr inbounds %"struct.std::pair", ptr %9, i64 %7, i32 1
  %11 = load ptr, ptr %10, align 8, !tbaa !37
  br label %12

12:                                               ; preds = %2, %6
  %.0 = phi ptr [ %11, %6 ], [ null, %2 ]
  ret ptr %.0
}